; Function Attrs: nounwind uwtable
define i32 @Abc_NtkPartitionedSat(ptr noundef %0, i32 noundef %1, i32 noundef %2, i32 noundef %3, i32 noundef %4, i32 noundef %5, i32 noundef %6, i32 noundef %7) local_unnamed_addr #1 {
  %9 = tail call ptr @Abc_NtkToDar(ptr noundef %0, i32 noundef 0, i32 noundef 0)
  %10 = tail call i32 @Aig_ManPartitionedSat(ptr noundef %9, i32 noundef %1, i32 noundef %2, i32 noundef %3, i32 noundef %4, i32 noundef %5, i32 noundef %6, i32 noundef %7) #19
  %11 = getelementptr inbounds nuw i8, ptr %9, i64 296
  %12 = load ptr, ptr %11, align 8
  %13 = getelementptr inbounds nuw i8, ptr %0, i64 304
  store ptr %12, ptr %13, align 8
  store ptr null, ptr %11, align 8
  tail call void @Aig_ManStop(ptr noundef %9) #19
  ret i32 %10
}